target datalayout = "e-m:e-p270:32:32-p271:32:32-p272:64:64-i64:64-i128:128-f80:128-n8:16:32:64-S128"
target triple = "x86_64-pc-linux-gnu"

%"class.cv::UMat" = type { i32, i32, i32, i32, ptr, i32, ptr, i64, %"struct.cv::MatSize", %"struct.cv::MatStep" }
%"struct.cv::MatSize" = type { ptr }
%"struct.cv::MatStep" = type { ptr, [2 x i64] }
%"class.cv::Rect_" = type { i32, i32, i32, i32 }

; Function Attrs: inlinehint mustprogress uwtable
define linkonce_odr hidden void @_ZNK2cv4UMatclERKNS_5Rect_IiEE(ptr dead_on_unwind noalias writable sret(%"class.cv::UMat") align 8 %0, ptr noundef nonnull align 8 dereferenceable(80) %1, ptr noundef nonnull align 4 dereferenceable(16) %2) #5 comdat align 2 {
  %4 = alloca ptr, align 8
  %5 = alloca ptr, align 8
  %6 = alloca ptr, align 8
  store ptr %0, ptr %4, align 8
  store ptr %1, ptr %5, align 8, !tbaa !42
  store ptr %2, ptr %6, align 8, !tbaa !71
  %7 = load ptr, ptr %5, align 8
  %8 = load ptr, ptr %6, align 8, !tbaa !71
  call void @_ZN2cv4UMatC1ERKS0_RKNS_5Rect_IiEE(ptr noundef nonnull align 8 dereferenceable(80) %0, ptr noundef nonnull align 8 dereferenceable(80) %7, ptr noundef nonnull align 4 dereferenceable(16) %8)
  ret void
}

; Function Attrs: inlinehint mustprogress nounwind uwtable
define linkonce_odr hidden void @_ZN2cv5Rect_IiEC2Eiiii(ptr noundef nonnull align 4 dereferenceable(16) %0, i32 noundef %1, i32 noundef %2, i32 noundef %3, i32 noundef %4) unnamed_addr #6 comdat align 2 {
  %6 = alloca ptr, align 8
  %7 = alloca i32, align 4
  %8 = alloca i32, align 4
  %9 = alloca i32, align 4
  %10 = alloca i32, align 4
  store ptr %0, ptr %6, align 8, !tbaa !71
  store i32 %1, ptr %7, align 4, !tbaa !30
  store i32 %2, ptr %8, align 4, !tbaa !30
  store i32 %3, ptr %9, align 4, !tbaa !30
  store i32 %4, ptr %10, align 4, !tbaa !30
  %11 = load ptr, ptr %6, align 8
  %12 = getelementptr inbounds nuw %"class.cv::Rect_", ptr %11, i32 0, i32 0
  %13 = load i32, ptr %7, align 4, !tbaa !30
  store i32 %13, ptr %12, align 4, !tbaa !73
  %14 = getelementptr inbounds nuw %"class.cv::Rect_", ptr %11, i32 0, i32 1
  %15 = load i32, ptr %8, align 4, !tbaa !30
  store i32 %15, ptr %14, align 4, !tbaa !75
  %16 = getelementptr inbounds nuw %"class.cv::Rect_", ptr %11, i32 0, i32 2
  %17 = load i32, ptr %9, align 4, !tbaa !30
  store i32 %17, ptr %16, align 4, !tbaa !76
  %18 = getelementptr inbounds nuw %"class.cv::Rect_", ptr %11, i32 0, i32 3
  %19 = load i32, ptr %10, align 4, !tbaa !30
  store i32 %19, ptr %18, align 4, !tbaa !77
  ret void
}

; Function Attrs: inlinehint mustprogress nounwind uwtable
define linkonce_odr hidden noundef nonnull align 4 dereferenceable(4) ptr @_ZN2cv7MatSizeixEi(ptr noundef nonnull align 8 dereferenceable(8) %0, i32 noundef %1) #6 comdat align 2 {
  %3 = alloca ptr, align 8
  %4 = alloca i32, align 4
  store ptr %0, ptr %3, align 8, !tbaa !68
  store i32 %1, ptr %4, align 4, !tbaa !30
  %5 = load ptr, ptr %3, align 8
  %6 = getelementptr inbounds nuw %"struct.cv::MatSize", ptr %5, i32 0, i32 0
  %7 = load ptr, ptr %6, align 8, !tbaa !70
  %8 = load i32, ptr %4, align 4, !tbaa !30
  %9 = sext i32 %8 to i64
  %10 = getelementptr inbounds i32, ptr %7, i64 %9
  ret ptr %10
}

; Function Attrs: inlinehint mustprogress nounwind uwtable
define linkonce_odr hidden noundef i64 @_ZNK2cv4UMat8elemSizeEv(ptr noundef nonnull align 8 dereferenceable(80) %0) #6 comdat align 2 {
  %2 = alloca ptr, align 8
  %3 = alloca i64, align 8
  store ptr %0, ptr %2, align 8, !tbaa !42
  %4 = load ptr, ptr %2, align 8
  call void @llvm.lifetime.start.p0(i64 8, ptr %3) #3
  %5 = getelementptr inbounds nuw %"class.cv::UMat", ptr %4, i32 0, i32 1
  %6 = load i32, ptr %5, align 4, !tbaa !65
  %7 = icmp sgt i32 %6, 0
  br i1 %7, label %8, label %18

8:                                                ; preds = %1
  %9 = getelementptr inbounds nuw %"class.cv::UMat", ptr %4, i32 0, i32 9
  %10 = getelementptr inbounds nuw %"struct.cv::MatStep", ptr %9, i32 0, i32 0
  %11 = load ptr, ptr %10, align 8, !tbaa !62
  %12 = getelementptr inbounds nuw %"class.cv::UMat", ptr %4, i32 0, i32 1
  %13 = load i32, ptr %12, align 4, !tbaa !65
  %14 = sub nsw i32 %13, 1
  %15 = sext i32 %14 to i64
  %16 = getelementptr inbounds i64, ptr %11, i64 %15
  %17 = load i64, ptr %16, align 8, !tbaa !60
  br label %19

18:                                               ; preds = %1
  br label %19

19:                                               ; preds = %18, %8
  %20 = phi i64 [ %17, %8 ], [ 0, %18 ]
  store i64 %20, ptr %3, align 8, !tbaa !60
  %21 = load i64, ptr %3, align 8, !tbaa !60
  call void @llvm.lifetime.end.p0(i64 8, ptr %3) #3
  ret i64 %21
}

; Function Attrs: mustprogress uwtable
define hidden void @_ZN2cv3dnn14dnn4_v2024122318getChannelFromBlobERNS_4UMatERKNS_11_InputArrayEiiiii(ptr noundef nonnull align 8 dereferenceable(80) %0, ptr noundef nonnull align 8 dereferenceable(24) %1, i32 noundef %2, i32 noundef %3, i32 noundef %4, i32 noundef %5, i32 noundef %6) #4 personality ptr @__gxx_personality_v0 {
  %8 = alloca ptr, align 8
  %9 = alloca ptr, align 8
  %10 = alloca i32, align 4
  %11 = alloca i32, align 4
  %12 = alloca i32, align 4
  %13 = alloca i32, align 4
  %14 = alloca i32, align 4
  %15 = alloca %"class.cv::UMat", align 8
  %16 = alloca i32, align 4
  %17 = alloca ptr, align 8
  %18 = alloca i32, align 4
  %19 = alloca i32, align 4
  %20 = alloca i32, align 4
  %21 = alloca [1 x i32], align 4
  %22 = alloca %"class.cv::UMat", align 8
  %23 = alloca %"class.cv::UMat", align 8
  %24 = alloca %"class.cv::Rect_", align 4
  %25 = alloca %"class.cv::UMat", align 8
  store ptr %0, ptr %8, align 8, !tbaa !42
  store ptr %1, ptr %9, align 8, !tbaa !36
  store i32 %2, ptr %10, align 4, !tbaa !30
  store i32 %3, ptr %11, align 4, !tbaa !30
  store i32 %4, ptr %12, align 4, !tbaa !30
  store i32 %5, ptr %13, align 4, !tbaa !30
  store i32 %6, ptr %14, align 4, !tbaa !30
  call void @llvm.lifetime.start.p0(i64 80, ptr %15) #3
  %26 = load ptr, ptr %9, align 8, !tbaa !36
  call void @_ZNK2cv11_InputArray7getUMatEi(ptr dead_on_unwind writable sret(%"class.cv::UMat") align 8 %15, ptr noundef nonnull align 8 dereferenceable(24) %26, i32 noundef -1)
  call void @llvm.lifetime.start.p0(i64 4, ptr %16) #3
  %27 = load i32, ptr %10, align 4, !tbaa !30
  %28 = sext i32 %27 to i64
  %29 = getelementptr inbounds nuw %"class.cv::UMat", ptr %15, i32 0, i32 9
  %30 = getelementptr inbounds nuw %"struct.cv::MatStep", ptr %29, i32 0, i32 0
  %31 = load ptr, ptr %30, align 8, !tbaa !62
  %32 = getelementptr inbounds i64, ptr %31, i64 0
  %33 = load i64, ptr %32, align 8, !tbaa !60
  %34 = mul i64 %28, %33
  %35 = load i32, ptr %11, align 4, !tbaa !30
  %36 = sext i32 %35 to i64
  %37 = getelementptr inbounds nuw %"class.cv::UMat", ptr %15, i32 0, i32 9
  %38 = getelementptr inbounds nuw %"struct.cv::MatStep", ptr %37, i32 0, i32 0
  %39 = load ptr, ptr %38, align 8, !tbaa !62
  %40 = getelementptr inbounds i64, ptr %39, i64 1
  %41 = load i64, ptr %40, align 8, !tbaa !60
  %42 = mul i64 %36, %41
  %43 = add i64 %34, %42
  %44 = invoke noundef i64 @_ZNK2cv4UMat8elemSizeEv(ptr noundef nonnull align 8 dereferenceable(80) %15)
          to label %45 unwind label %54

45:                                               ; preds = %7
  %46 = udiv i64 %43, %44
  %47 = trunc i64 %46 to i32
  store i32 %47, ptr %16, align 4, !tbaa !30
  call void @llvm.lifetime.start.p0(i64 4, ptr %19) #3
  store i32 1, ptr %19, align 4, !tbaa !30
  call void @llvm.lifetime.start.p0(i64 4, ptr %20) #3
  store i32 0, ptr %20, align 4, !tbaa !30
  br label %48

48:                                               ; preds = %66, %45
  %49 = load i32, ptr %20, align 4, !tbaa !30
  %50 = getelementptr inbounds nuw %"class.cv::UMat", ptr %15, i32 0, i32 1
  %51 = load i32, ptr %50, align 4, !tbaa !65
  %52 = icmp slt i32 %49, %51
  br i1 %52, label %58, label %53

53:                                               ; preds = %48
  call void @llvm.lifetime.end.p0(i64 4, ptr %20) #3
  br label %73

54:                                               ; preds = %7
  %55 = landingpad { ptr, i32 }
          cleanup
  %56 = extractvalue { ptr, i32 } %55, 0
  store ptr %56, ptr %17, align 8
  %57 = extractvalue { ptr, i32 } %55, 1
  store i32 %57, ptr %18, align 4
  br label %112

58:                                               ; preds = %48
  %59 = getelementptr inbounds nuw %"class.cv::UMat", ptr %15, i32 0, i32 8
  %60 = load i32, ptr %20, align 4, !tbaa !30
  %61 = invoke noundef nonnull align 4 dereferenceable(4) ptr @_ZN2cv7MatSizeixEi(ptr noundef nonnull align 8 dereferenceable(8) %59, i32 noundef %60)
          to label %62 unwind label %69

62:                                               ; preds = %58
  %63 = load i32, ptr %61, align 4, !tbaa !30
  %64 = load i32, ptr %19, align 4, !tbaa !30
  %65 = mul nsw i32 %64, %63
  store i32 %65, ptr %19, align 4, !tbaa !30
  br label %66

66:                                               ; preds = %62
  %67 = load i32, ptr %20, align 4, !tbaa !30
  %68 = add nsw i32 %67, 1
  store i32 %68, ptr %20, align 4, !tbaa !30
  br label %48, !llvm.loop !66

69:                                               ; preds = %58
  %70 = landingpad { ptr, i32 }
          cleanup
  %71 = extractvalue { ptr, i32 } %70, 0
  store ptr %71, ptr %17, align 8
  %72 = extractvalue { ptr, i32 } %70, 1
  store i32 %72, ptr %18, align 4
  call void @llvm.lifetime.end.p0(i64 4, ptr %20) #3
  br label %111

73:                                               ; preds = %53
  call void @llvm.lifetime.start.p0(i64 4, ptr %21) #3
  %74 = load i32, ptr %19, align 4, !tbaa !30
  store i32 %74, ptr %21, align 4, !tbaa !30
  call void @llvm.lifetime.start.p0(i64 80, ptr %22) #3
  %75 = getelementptr inbounds [1 x i32], ptr %21, i64 0, i64 0
  invoke void @_ZNK2cv4UMat7reshapeEiiPKi(ptr dead_on_unwind writable sret(%"class.cv::UMat") align 8 %22, ptr noundef nonnull align 8 dereferenceable(80) %15, i32 noundef 1, i32 noundef 1, ptr noundef %75)
          to label %76 unwind label %92

76:                                               ; preds = %73
  call void @llvm.lifetime.start.p0(i64 80, ptr %23) #3
  call void @llvm.lifetime.start.p0(i64 16, ptr %24) #3
  %77 = load i32, ptr %16, align 4, !tbaa !30
  %78 = load i32, ptr %12, align 4, !tbaa !30
  %79 = load i32, ptr %13, align 4, !tbaa !30
  %80 = mul nsw i32 %78, %79
  invoke void @_ZN2cv5Rect_IiEC2Eiiii(ptr noundef nonnull align 4 dereferenceable(16) %24, i32 noundef 0, i32 noundef %77, i32 noundef 1, i32 noundef %80)
          to label %81 unwind label %96

81:                                               ; preds = %76
  invoke void @_ZNK2cv4UMatclERKNS_5Rect_IiEE(ptr dead_on_unwind writable sret(%"class.cv::UMat") align 8 %23, ptr noundef nonnull align 8 dereferenceable(80) %22, ptr noundef nonnull align 4 dereferenceable(16) %24)
          to label %82 unwind label %96

82:                                               ; preds = %81
  call void @llvm.lifetime.end.p0(i64 16, ptr %24) #3
  call void @llvm.lifetime.start.p0(i64 80, ptr %25) #3
  %83 = load i32, ptr %14, align 4, !tbaa !30
  %84 = and i32 %83, 4088
  %85 = ashr i32 %84, 3
  %86 = add nsw i32 %85, 1
  %87 = load i32, ptr %12, align 4, !tbaa !30
  invoke void @_ZNK2cv4UMat7reshapeEii(ptr dead_on_unwind writable sret(%"class.cv::UMat") align 8 %25, ptr noundef nonnull align 8 dereferenceable(80) %23, i32 noundef %86, i32 noundef %87)
          to label %88 unwind label %100

88:                                               ; preds = %82
  %89 = load ptr, ptr %8, align 8, !tbaa !42
  %90 = invoke noundef nonnull align 8 dereferenceable(80) ptr @_ZN2cv4UMataSEOS0_(ptr noundef nonnull align 8 dereferenceable(80) %89, ptr noundef nonnull align 8 dereferenceable(80) %25)
          to label %91 unwind label %104

91:                                               ; preds = %88
  call void @_ZN2cv4UMatD1Ev(ptr noundef nonnull align 8 dereferenceable(80) %25) #3
  call void @llvm.lifetime.end.p0(i64 80, ptr %25) #3
  call void @_ZN2cv4UMatD1Ev(ptr noundef nonnull align 8 dereferenceable(80) %23) #3
  call void @llvm.lifetime.end.p0(i64 80, ptr %23) #3
  call void @_ZN2cv4UMatD1Ev(ptr noundef nonnull align 8 dereferenceable(80) %22) #3
  call void @llvm.lifetime.end.p0(i64 80, ptr %22) #3
  call void @llvm.lifetime.end.p0(i64 4, ptr %21) #3
  call void @llvm.lifetime.end.p0(i64 4, ptr %19) #3
  call void @llvm.lifetime.end.p0(i64 4, ptr %16) #3
  call void @_ZN2cv4UMatD1Ev(ptr noundef nonnull align 8 dereferenceable(80) %15) #3
  call void @llvm.lifetime.end.p0(i64 80, ptr %15) #3
  ret void

92:                                               ; preds = %73
  %93 = landingpad { ptr, i32 }
          cleanup
  %94 = extractvalue { ptr, i32 } %93, 0
  store ptr %94, ptr %17, align 8
  %95 = extractvalue { ptr, i32 } %93, 1
  store i32 %95, ptr %18, align 4
  br label %110

96:                                               ; preds = %81, %76
  %97 = landingpad { ptr, i32 }
          cleanup
  %98 = extractvalue { ptr, i32 } %97, 0
  store ptr %98, ptr %17, align 8
  %99 = extractvalue { ptr, i32 } %97, 1
  store i32 %99, ptr %18, align 4
  call void @llvm.lifetime.end.p0(i64 16, ptr %24) #3
  br label %109

100:                                              ; preds = %82
  %101 = landingpad { ptr, i32 }
          cleanup
  %102 = extractvalue { ptr, i32 } %101, 0
  store ptr %102, ptr %17, align 8
  %103 = extractvalue { ptr, i32 } %101, 1
  store i32 %103, ptr %18, align 4
  br label %108

104:                                              ; preds = %88
  %105 = landingpad { ptr, i32 }
          cleanup
  %106 = extractvalue { ptr, i32 } %105, 0
  store ptr %106, ptr %17, align 8
  %107 = extractvalue { ptr, i32 } %105, 1
  store i32 %107, ptr %18, align 4
  call void @_ZN2cv4UMatD1Ev(ptr noundef nonnull align 8 dereferenceable(80) %25) #3
  br label %108

108:                                              ; preds = %104, %100
  call void @llvm.lifetime.end.p0(i64 80, ptr %25) #3
  call void @_ZN2cv4UMatD1Ev(ptr noundef nonnull align 8 dereferenceable(80) %23) #3
  br label %109

109:                                              ; preds = %108, %96
  call void @llvm.lifetime.end.p0(i64 80, ptr %23) #3
  call void @_ZN2cv4UMatD1Ev(ptr noundef nonnull align 8 dereferenceable(80) %22) #3
  br label %110

110:                                              ; preds = %109, %92
  call void @llvm.lifetime.end.p0(i64 80, ptr %22) #3
  call void @llvm.lifetime.end.p0(i64 4, ptr %21) #3
  br label %111

111:                                              ; preds = %110, %69
  call void @llvm.lifetime.end.p0(i64 4, ptr %19) #3
  br label %112

112:                                              ; preds = %111, %54
  call void @llvm.lifetime.end.p0(i64 4, ptr %16) #3
  call void @_ZN2cv4UMatD1Ev(ptr noundef nonnull align 8 dereferenceable(80) %15) #3
  call void @llvm.lifetime.end.p0(i64 80, ptr %15) #3
  br label %113

113:                                              ; preds = %112
  %114 = load ptr, ptr %17, align 8
  %115 = load i32, ptr %18, align 4
  %116 = insertvalue { ptr, i32 } poison, ptr %114, 0
  %117 = insertvalue { ptr, i32 } %116, i32 %115, 1
  resume { ptr, i32 } %117
}