; Function Attrs: mustprogress uwtable
define hidden void @_ZN2cv3dnn14dnn4_v2024122318getChannelFromBlobERNS_4UMatERKNS_11_InputArrayEiiiii(ptr noundef nonnull align 8 dereferenceable(80) %0, ptr noundef nonnull align 8 dereferenceable(24) %1, i32 noundef %2, i32 noundef %3, i32 noundef %4, i32 noundef %5, i32 noundef %6) local_unnamed_addr #6 personality ptr @__gxx_personality_v0 {
_ZNK2cv4UMat8elemSizeEv.exit:
  %7 = alloca %"class.cv::UMat", align 8
  %8 = alloca [1 x i32], align 4
  %9 = alloca %"class.cv::UMat", align 8
  %10 = alloca %"class.cv::UMat", align 8
  %11 = alloca %"class.cv::Rect_", align 4
  %12 = alloca %"class.cv::UMat", align 8
  call void @llvm.lifetime.start.p0(i64 80, ptr nonnull %7) #21
  call void @_ZNK2cv11_InputArray7getUMatEi(ptr dead_on_unwind nonnull writable sret(%"class.cv::UMat") align 8 %7, ptr noundef nonnull align 8 dereferenceable(24) %1, i32 noundef -1)
  %13 = sext i32 %2 to i64
  %14 = getelementptr inbounds nuw i8, ptr %7, i64 56
  %15 = load ptr, ptr %14, align 8, !tbaa !49
  %16 = load i64, ptr %15, align 8, !tbaa !47
  %17 = mul i64 %16, %13
  %18 = sext i32 %3 to i64
  %19 = getelementptr inbounds nuw i8, ptr %15, i64 8
  %20 = load i64, ptr %19, align 8, !tbaa !47
  %21 = mul i64 %20, %18
  %22 = add i64 %21, %17
  %23 = getelementptr inbounds nuw i8, ptr %7, i64 4
  %24 = load i32, ptr %23, align 4, !tbaa !52
  %25 = icmp sgt i32 %24, 0
  call void @llvm.assume(i1 %25)
  %26 = zext nneg i32 %24 to i64
  %27 = getelementptr i64, ptr %15, i64 %26
  %28 = getelementptr i8, ptr %27, i64 -8
  %29 = load i64, ptr %28, align 8, !tbaa !47
  %30 = udiv i64 %22, %29
  %31 = getelementptr inbounds nuw i8, ptr %7, i64 48
  %32 = load ptr, ptr %31, align 8, !tbaa !53
  br label %34

33:                                               ; preds = %34
  call void @llvm.lifetime.start.p0(i64 4, ptr nonnull %8) #21
  store i32 %37, ptr %8, align 4, !tbaa !54
  call void @llvm.lifetime.start.p0(i64 80, ptr nonnull %9) #21
  invoke void @_ZNK2cv4UMat7reshapeEiiPKi(ptr dead_on_unwind nonnull writable sret(%"class.cv::UMat") align 8 %9, ptr noundef nonnull align 8 dereferenceable(80) %7, i32 noundef 1, i32 noundef 1, ptr noundef nonnull %8)
          to label %38 unwind label %50

34:                                               ; preds = %_ZNK2cv4UMat8elemSizeEv.exit, %34
  %indvars.iv = phi i64 [ 0, %_ZNK2cv4UMat8elemSizeEv.exit ], [ %indvars.iv.next, %34 ]
  %.01523 = phi i32 [ 1, %_ZNK2cv4UMat8elemSizeEv.exit ], [ %37, %34 ]
  %35 = getelementptr inbounds nuw i32, ptr %32, i64 %indvars.iv
  %36 = load i32, ptr %35, align 4, !tbaa !54
  %37 = mul nsw i32 %36, %.01523
  %indvars.iv.next = add nuw nsw i64 %indvars.iv, 1
  %exitcond.not = icmp eq i64 %indvars.iv.next, %26
  br i1 %exitcond.not, label %33, label %34, !llvm.loop !55

38:                                               ; preds = %33
  %39 = trunc i64 %30 to i32
  call void @llvm.lifetime.start.p0(i64 80, ptr nonnull %10) #21
  call void @llvm.lifetime.start.p0(i64 16, ptr nonnull %11) #21
  %40 = mul nsw i32 %5, %4
  store i32 0, ptr %11, align 4, !tbaa !56
  %41 = getelementptr inbounds nuw i8, ptr %11, i64 4
  store i32 %39, ptr %41, align 4, !tbaa !58
  %42 = getelementptr inbounds nuw i8, ptr %11, i64 8
  store i32 1, ptr %42, align 4, !tbaa !59
  %43 = getelementptr inbounds nuw i8, ptr %11, i64 12
  store i32 %40, ptr %43, align 4, !tbaa !60
  invoke void @_ZN2cv4UMatC1ERKS0_RKNS_5Rect_IiEE(ptr noundef nonnull align 8 dereferenceable(80) %10, ptr noundef nonnull align 8 dereferenceable(80) %9, ptr noundef nonnull align 4 dereferenceable(16) %11)
          to label %_ZNK2cv4UMatclERKNS_5Rect_IiEE.exit unwind label %52

_ZNK2cv4UMatclERKNS_5Rect_IiEE.exit:              ; preds = %38
  call void @llvm.lifetime.end.p0(i64 16, ptr nonnull %11) #21
  call void @llvm.lifetime.start.p0(i64 80, ptr nonnull %12) #21
  %44 = lshr i32 %6, 3
  %45 = and i32 %44, 511
  %46 = add nuw nsw i32 %45, 1
  invoke void @_ZNK2cv4UMat7reshapeEii(ptr dead_on_unwind nonnull writable sret(%"class.cv::UMat") align 8 %12, ptr noundef nonnull align 8 dereferenceable(80) %10, i32 noundef %46, i32 noundef %4)
          to label %47 unwind label %54

47:                                               ; preds = %_ZNK2cv4UMatclERKNS_5Rect_IiEE.exit
  %48 = invoke noundef nonnull align 8 dereferenceable(80) ptr @_ZN2cv4UMataSEOS0_(ptr noundef nonnull align 8 dereferenceable(80) %0, ptr noundef nonnull align 8 dereferenceable(80) %12)
          to label %49 unwind label %56

49:                                               ; preds = %47
  call void @_ZN2cv4UMatD1Ev(ptr noundef nonnull align 8 dereferenceable(80) %12) #21
  call void @llvm.lifetime.end.p0(i64 80, ptr nonnull %12) #21
  call void @_ZN2cv4UMatD1Ev(ptr noundef nonnull align 8 dereferenceable(80) %10) #21
  call void @llvm.lifetime.end.p0(i64 80, ptr nonnull %10) #21
  call void @_ZN2cv4UMatD1Ev(ptr noundef nonnull align 8 dereferenceable(80) %9) #21
  call void @llvm.lifetime.end.p0(i64 80, ptr nonnull %9) #21
  call void @llvm.lifetime.end.p0(i64 4, ptr nonnull %8) #21
  call void @_ZN2cv4UMatD1Ev(ptr noundef nonnull align 8 dereferenceable(80) %7) #21
  call void @llvm.lifetime.end.p0(i64 80, ptr nonnull %7) #21
  ret void

50:                                               ; preds = %33
  %51 = landingpad { ptr, i32 }
          cleanup
  br label %60

52:                                               ; preds = %38
  %53 = landingpad { ptr, i32 }
          cleanup
  call void @llvm.lifetime.end.p0(i64 16, ptr nonnull %11) #21
  br label %59

54:                                               ; preds = %_ZNK2cv4UMatclERKNS_5Rect_IiEE.exit
  %55 = landingpad { ptr, i32 }
          cleanup
  br label %58

56:                                               ; preds = %47
  %57 = landingpad { ptr, i32 }
          cleanup
  call void @_ZN2cv4UMatD1Ev(ptr noundef nonnull align 8 dereferenceable(80) %12) #21
  br label %58

58:                                               ; preds = %56, %54
  %.pn = phi { ptr, i32 } [ %57, %56 ], [ %55, %54 ]
  call void @llvm.lifetime.end.p0(i64 80, ptr nonnull %12) #21
  call void @_ZN2cv4UMatD1Ev(ptr noundef nonnull align 8 dereferenceable(80) %10) #21
  br label %59

59:                                               ; preds = %58, %52
  %.pn.pn = phi { ptr, i32 } [ %.pn, %58 ], [ %53, %52 ]
  call void @llvm.lifetime.end.p0(i64 80, ptr nonnull %10) #21
  call void @_ZN2cv4UMatD1Ev(ptr noundef nonnull align 8 dereferenceable(80) %9) #21
  br label %60

60:                                               ; preds = %59, %50
  %.pn.pn.pn = phi { ptr, i32 } [ %.pn.pn, %59 ], [ %51, %50 ]
  call void @llvm.lifetime.end.p0(i64 80, ptr nonnull %9) #21
  call void @llvm.lifetime.end.p0(i64 4, ptr nonnull %8) #21
  call void @_ZN2cv4UMatD1Ev(ptr noundef nonnull align 8 dereferenceable(80) %7) #21
  call void @llvm.lifetime.end.p0(i64 80, ptr nonnull %7) #21
  resume { ptr, i32 } %.pn.pn.pn
}